target datalayout = "e-m:e-p270:32:32-p271:32:32-p272:64:64-i64:64-i128:128-f80:128-n8:16:32:64-S128"
target triple = "x86_64-pc-linux-gnu"

%"struct.Luau::CodeGen::BlockLinearizationStats" = type { i32, double }
%"struct.Luau::CodeGen::LoweringStats" = type { i32, i32, i32, i32, i32, i32, i32, i32, i32, i32, %"struct.Luau::CodeGen::BlockLinearizationStats", i32, %"class.std::vector.8" }
%"class.std::vector.8" = type { %"struct.std::_Vector_base.9" }
%"struct.std::_Vector_base.9" = type { %"struct.std::_Vector_base<Luau::CodeGen::FunctionStats, std::allocator<Luau::CodeGen::FunctionStats>>::_Vector_impl" }
%"struct.std::_Vector_base<Luau::CodeGen::FunctionStats, std::allocator<Luau::CodeGen::FunctionStats>>::_Vector_impl" = type { %"struct.std::_Vector_base<Luau::CodeGen::FunctionStats, std::allocator<Luau::CodeGen::FunctionStats>>::_Vector_impl_data" }
%"struct.std::_Vector_base<Luau::CodeGen::FunctionStats, std::allocator<Luau::CodeGen::FunctionStats>>::_Vector_impl_data" = type { ptr, ptr, ptr }
%struct.CompileStats = type { i64, i64, i64, i64, double, double, double, double, double, %"struct.Luau::CodeGen::LoweringStats" }

@.str.68 = private unnamed_addr constant [3 x i8] c"{\0A\00", align 1
@.str.86 = private unnamed_addr constant [23 x i8] c"        \22lines\22: %zu,\0A\00", align 1
@.str.87 = private unnamed_addr constant [26 x i8] c"        \22bytecode\22: %zu,\0A\00", align 1
@.str.88 = private unnamed_addr constant [42 x i8] c"        \22bytecodeInstructionCount\22: %zu,\0A\00", align 1
@.str.89 = private unnamed_addr constant [25 x i8] c"        \22codegen\22: %zu,\0A\00", align 1
@.str.90 = private unnamed_addr constant [25 x i8] c"        \22readTime\22: %f,\0A\00", align 1
@.str.91 = private unnamed_addr constant [25 x i8] c"        \22miscTime\22: %f,\0A\00", align 1
@.str.92 = private unnamed_addr constant [26 x i8] c"        \22parseTime\22: %f,\0A\00", align 1
@.str.93 = private unnamed_addr constant [28 x i8] c"        \22compileTime\22: %f,\0A\00", align 1
@.str.94 = private unnamed_addr constant [28 x i8] c"        \22codegenTime\22: %f,\0A\00", align 1
@.str.95 = private unnamed_addr constant [23 x i8] c"        \22lowerStats\22: \00", align 1
@.str.96 = private unnamed_addr constant [7 x i8] c"\0A    }\00", align 1

; Function Attrs: mustprogress nounwind uwtable
define dso_local void @_Z21serializeCompileStatsP8_IO_FILERK12CompileStats(ptr noundef %0, ptr noundef nonnull align 8 dereferenceable(160) %1) #1 {
  %3 = alloca ptr, align 8
  %4 = alloca ptr, align 8
  store ptr %0, ptr %3, align 8
  store ptr %1, ptr %4, align 8
  %5 = load ptr, ptr %3, align 8
  %6 = call i32 (ptr, ptr, ...) @fprintf(ptr noundef %5, ptr noundef @.str.68) #16
  %7 = load ptr, ptr %3, align 8
  %8 = load ptr, ptr %4, align 8
  %9 = getelementptr inbounds %struct.CompileStats, ptr %8, i32 0, i32 0
  %10 = load i64, ptr %9, align 8
  %11 = call i32 (ptr, ptr, ...) @fprintf(ptr noundef %7, ptr noundef @.str.86, i64 noundef %10) #16
  %12 = load ptr, ptr %3, align 8
  %13 = load ptr, ptr %4, align 8
  %14 = getelementptr inbounds %struct.CompileStats, ptr %13, i32 0, i32 1
  %15 = load i64, ptr %14, align 8
  %16 = call i32 (ptr, ptr, ...) @fprintf(ptr noundef %12, ptr noundef @.str.87, i64 noundef %15) #16
  %17 = load ptr, ptr %3, align 8
  %18 = load ptr, ptr %4, align 8
  %19 = getelementptr inbounds %struct.CompileStats, ptr %18, i32 0, i32 2
  %20 = load i64, ptr %19, align 8
  %21 = call i32 (ptr, ptr, ...) @fprintf(ptr noundef %17, ptr noundef @.str.88, i64 noundef %20) #16
  %22 = load ptr, ptr %3, align 8
  %23 = load ptr, ptr %4, align 8
  %24 = getelementptr inbounds %struct.CompileStats, ptr %23, i32 0, i32 3
  %25 = load i64, ptr %24, align 8
  %26 = call i32 (ptr, ptr, ...) @fprintf(ptr noundef %22, ptr noundef @.str.89, i64 noundef %25) #16
  %27 = load ptr, ptr %3, align 8
  %28 = load ptr, ptr %4, align 8
  %29 = getelementptr inbounds %struct.CompileStats, ptr %28, i32 0, i32 4
  %30 = load double, ptr %29, align 8
  %31 = call i32 (ptr, ptr, ...) @fprintf(ptr noundef %27, ptr noundef @.str.90, double noundef %30) #16
  %32 = load ptr, ptr %3, align 8
  %33 = load ptr, ptr %4, align 8
  %34 = getelementptr inbounds %struct.CompileStats, ptr %33, i32 0, i32 5
  %35 = load double, ptr %34, align 8
  %36 = call i32 (ptr, ptr, ...) @fprintf(ptr noundef %32, ptr noundef @.str.91, double noundef %35) #16
  %37 = load ptr, ptr %3, align 8
  %38 = load ptr, ptr %4, align 8
  %39 = getelementptr inbounds %struct.CompileStats, ptr %38, i32 0, i32 6
  %40 = load double, ptr %39, align 8
  %41 = call i32 (ptr, ptr, ...) @fprintf(ptr noundef %37, ptr noundef @.str.92, double noundef %40) #16
  %42 = load ptr, ptr %3, align 8
  %43 = load ptr, ptr %4, align 8
  %44 = getelementptr inbounds %struct.CompileStats, ptr %43, i32 0, i32 7
  %45 = load double, ptr %44, align 8
  %46 = call i32 (ptr, ptr, ...) @fprintf(ptr noundef %42, ptr noundef @.str.93, double noundef %45) #16
  %47 = load ptr, ptr %3, align 8
  %48 = load ptr, ptr %4, align 8
  %49 = getelementptr inbounds %struct.CompileStats, ptr %48, i32 0, i32 8
  %50 = load double, ptr %49, align 8
  %51 = call i32 (ptr, ptr, ...) @fprintf(ptr noundef %47, ptr noundef @.str.94, double noundef %50) #16
  %52 = load ptr, ptr %3, align 8
  %53 = call i32 (ptr, ptr, ...) @fprintf(ptr noundef %52, ptr noundef @.str.95) #16
  %54 = load ptr, ptr %3, align 8
  %55 = load ptr, ptr %4, align 8
  %56 = getelementptr inbounds %struct.CompileStats, ptr %55, i32 0, i32 9
  call void @_Z22serializeLoweringStatsP8_IO_FILERKN4Luau7CodeGen13LoweringStatsE(ptr noundef %54, ptr noundef nonnull align 8 dereferenceable(88) %56)
  %57 = load ptr, ptr %3, align 8
  %58 = call i32 (ptr, ptr, ...) @fprintf(ptr noundef %57, ptr noundef @.str.96) #16
  ret void
}