; Function Attrs: mustprogress nounwind uwtable
define dso_local void @_Z21serializeCompileStatsP8_IO_FILERK12CompileStats(ptr nocapture noundef %0, ptr nocapture noundef nonnull readonly align 8 dereferenceable(160) %1) local_unnamed_addr #1 {
  %3 = tail call i64 @fwrite(ptr nonnull @.str.68, i64 2, i64 1, ptr %0)
  %4 = load i64, ptr %1, align 8
  %5 = tail call i32 (ptr, ptr, ...) @fprintf(ptr noundef %0, ptr noundef nonnull @.str.86, i64 noundef %4) #23
  %6 = getelementptr inbounds i8, ptr %1, i64 8
  %7 = load i64, ptr %6, align 8
  %8 = tail call i32 (ptr, ptr, ...) @fprintf(ptr noundef %0, ptr noundef nonnull @.str.87, i64 noundef %7) #23
  %9 = getelementptr inbounds i8, ptr %1, i64 16
  %10 = load i64, ptr %9, align 8
  %11 = tail call i32 (ptr, ptr, ...) @fprintf(ptr noundef %0, ptr noundef nonnull @.str.88, i64 noundef %10) #23
  %12 = getelementptr inbounds i8, ptr %1, i64 24
  %13 = load i64, ptr %12, align 8
  %14 = tail call i32 (ptr, ptr, ...) @fprintf(ptr noundef %0, ptr noundef nonnull @.str.89, i64 noundef %13) #23
  %15 = getelementptr inbounds i8, ptr %1, i64 32
  %16 = load double, ptr %15, align 8
  %17 = tail call i32 (ptr, ptr, ...) @fprintf(ptr noundef %0, ptr noundef nonnull @.str.90, double noundef %16) #23
  %18 = getelementptr inbounds i8, ptr %1, i64 40
  %19 = load double, ptr %18, align 8
  %20 = tail call i32 (ptr, ptr, ...) @fprintf(ptr noundef %0, ptr noundef nonnull @.str.91, double noundef %19) #23
  %21 = getelementptr inbounds i8, ptr %1, i64 48
  %22 = load double, ptr %21, align 8
  %23 = tail call i32 (ptr, ptr, ...) @fprintf(ptr noundef %0, ptr noundef nonnull @.str.92, double noundef %22) #23
  %24 = getelementptr inbounds i8, ptr %1, i64 56
  %25 = load double, ptr %24, align 8
  %26 = tail call i32 (ptr, ptr, ...) @fprintf(ptr noundef %0, ptr noundef nonnull @.str.93, double noundef %25) #23
  %27 = getelementptr inbounds i8, ptr %1, i64 64
  %28 = load double, ptr %27, align 8
  %29 = tail call i32 (ptr, ptr, ...) @fprintf(ptr noundef %0, ptr noundef nonnull @.str.94, double noundef %28) #23
  %30 = tail call i64 @fwrite(ptr nonnull @.str.95, i64 22, i64 1, ptr %0)
  %31 = getelementptr inbounds i8, ptr %1, i64 72
  tail call void @_Z22serializeLoweringStatsP8_IO_FILERKN4Luau7CodeGen13LoweringStatsE(ptr noundef %0, ptr noundef nonnull align 8 dereferenceable(88) %31)
  %32 = tail call i64 @fwrite(ptr nonnull @.str.96, i64 6, i64 1, ptr %0)
  ret void
}